; Function Attrs: nounwind uwtable
define dso_local noundef ptr @list_delete_first(ptr noundef %0) local_unnamed_addr #0 {
  %2 = icmp eq ptr %0, null
  br i1 %2, label %list_delete_nth_cell.exit, label %3

3:                                                ; preds = %1
  %4 = getelementptr inbounds nuw i8, ptr %0, i64 4
  %5 = load i32, ptr %4, align 4
  %6 = icmp eq i32 %5, 1
  %7 = getelementptr inbounds nuw i8, ptr %0, i64 16
  %8 = load ptr, ptr %7, align 8
  br i1 %6, label %9, label %12

9:                                                ; preds = %3
  %10 = getelementptr inbounds nuw i8, ptr %0, i64 24
  %.not.i.i.i = icmp eq ptr %8, %10
  br i1 %.not.i.i.i, label %list_free.exit.i, label %11

11:                                               ; preds = %9
  tail call void @pfree(ptr noundef %8) #9
  br label %list_free.exit.i

list_free.exit.i:                                 ; preds = %11, %9
  tail call void @pfree(ptr noundef nonnull %0) #9
  br label %list_delete_nth_cell.exit

12:                                               ; preds = %3
  %13 = getelementptr inbounds nuw i8, ptr %8, i64 8
  %14 = add i32 %5, -1
  %15 = sext i32 %14 to i64
  %16 = shl nsw i64 %15, 3
  tail call void @llvm.memmove.p0.p0.i64(ptr align 8 %8, ptr nonnull align 8 %13, i64 %16, i1 false)
  %17 = load i32, ptr %4, align 4
  %18 = add i32 %17, -1
  store i32 %18, ptr %4, align 4
  br label %list_delete_nth_cell.exit

list_delete_nth_cell.exit:                        ; preds = %12, %list_free.exit.i, %1
  %.0 = phi ptr [ null, %1 ], [ null, %list_free.exit.i ], [ %0, %12 ]
  ret ptr %.0
}